target datalayout = "e-m:e-p270:32:32-p271:32:32-p272:64:64-i64:64-i128:128-f80:128-n8:16:32:64-S128"
target triple = "x86_64-pc-linux-gnu"

%"class.std::vector" = type { %"struct.std::_Vector_base" }
%"struct.std::_Vector_base" = type { %"struct.std::_Vector_base<unsigned int, std::allocator<unsigned int>>::_Vector_impl" }
%"struct.std::_Vector_base<unsigned int, std::allocator<unsigned int>>::_Vector_impl" = type { %"struct.std::_Vector_base<unsigned int, std::allocator<unsigned int>>::_Vector_impl_data" }
%"struct.std::_Vector_base<unsigned int, std::allocator<unsigned int>>::_Vector_impl_data" = type { ptr, ptr, ptr }
%"class.cvc5::internal::String" = type { %"class.std::vector" }
%"class.cvc5::internal::FatalStream" = type { i8 }
%"class.cvc5::internal::NodeTemplate.85" = type { ptr }
%"class.__gnu_cxx::__normal_iterator.87" = type { ptr }
%"class.cvc5::internal::expr::NodeValue" = type { i64, i64, ptr, [0 x ptr] }

@.str = private unnamed_addr constant [115 x i8] c"generated/home/dtcxzyw/WorkSpace/Projects/compilers/llvm-opt-benchmark/bench/cvc5/cvc5/src/theory/strings/word.cpp\00", align 1
@.str.1 = private unnamed_addr constant [32 x i8] c"Unimplemented code encountered \00", align 1
@__PRETTY_FUNCTION__._ZN4cvc58internal6theory7strings4Word10hasOverlapENS0_12NodeTemplateILb0EEES5_b = private unnamed_addr constant [82 x i8] c"static bool cvc5::internal::theory::strings::Word::hasOverlap(TNode, TNode, bool)\00", align 1

; Function Attrs: mustprogress nounwind uwtable
define linkonce_odr hidden noundef nonnull align 8 dereferenceable(8) ptr @_ZNK9__gnu_cxx17__normal_iteratorIPKjSt6vectorIjSaIjEEE4baseEv(ptr noundef nonnull align 8 dereferenceable(8) %0) #7 comdat align 2 {
  %2 = alloca ptr, align 8
  store ptr %0, ptr %2, align 8, !tbaa !54
  %3 = load ptr, ptr %2, align 8
  %4 = getelementptr inbounds nuw %"class.__gnu_cxx::__normal_iterator.87", ptr %3, i32 0, i32 0
  ret ptr %4
}

; Function Attrs: mustprogress nounwind uwtable
define linkonce_odr hidden void @_ZN9__gnu_cxx17__normal_iteratorIPKjSt6vectorIjSaIjEEEC2ERKS2_(ptr noundef nonnull align 8 dereferenceable(8) %0, ptr noundef nonnull align 8 dereferenceable(8) %1) unnamed_addr #7 comdat align 2 {
  %3 = alloca ptr, align 8
  %4 = alloca ptr, align 8
  store ptr %0, ptr %3, align 8, !tbaa !54
  store ptr %1, ptr %4, align 8, !tbaa !125
  %5 = load ptr, ptr %3, align 8
  %6 = getelementptr inbounds nuw %"class.__gnu_cxx::__normal_iterator.87", ptr %5, i32 0, i32 0
  %7 = load ptr, ptr %4, align 8, !tbaa !125
  %8 = load ptr, ptr %7, align 8, !tbaa !53
  store ptr %8, ptr %6, align 8, !tbaa !58
  ret void
}

; Function Attrs: inlinehint mustprogress nounwind uwtable
define linkonce_odr noundef zeroext i1 @_ZN9__gnu_cxxeqIPKjSt6vectorIjSaIjEEEEbRKNS_17__normal_iteratorIT_T0_EESB_(ptr noundef nonnull align 8 dereferenceable(8) %0, ptr noundef nonnull align 8 dereferenceable(8) %1) #8 comdat {
  %3 = alloca ptr, align 8
  %4 = alloca ptr, align 8
  store ptr %0, ptr %3, align 8, !tbaa !54
  store ptr %1, ptr %4, align 8, !tbaa !54
  %5 = load ptr, ptr %3, align 8, !tbaa !54
  %6 = call noundef nonnull align 8 dereferenceable(8) ptr @_ZNK9__gnu_cxx17__normal_iteratorIPKjSt6vectorIjSaIjEEE4baseEv(ptr noundef nonnull align 8 dereferenceable(8) %5) #3
  %7 = load ptr, ptr %6, align 8, !tbaa !53
  %8 = load ptr, ptr %4, align 8, !tbaa !54
  %9 = call noundef nonnull align 8 dereferenceable(8) ptr @_ZNK9__gnu_cxx17__normal_iteratorIPKjSt6vectorIjSaIjEEE4baseEv(ptr noundef nonnull align 8 dereferenceable(8) %8) #3
  %10 = load ptr, ptr %9, align 8, !tbaa !53
  %11 = icmp eq ptr %7, %10
  ret i1 %11
}

; Function Attrs: mustprogress nounwind uwtable
define linkonce_odr hidden ptr @_ZNKSt6vectorIjSaIjEE3endEv(ptr noundef nonnull align 8 dereferenceable(24) %0) #7 comdat align 2 {
  %2 = alloca %"class.__gnu_cxx::__normal_iterator.87", align 8
  %3 = alloca ptr, align 8
  store ptr %0, ptr %3, align 8, !tbaa !10
  %4 = load ptr, ptr %3, align 8
  %5 = getelementptr inbounds nuw %"struct.std::_Vector_base", ptr %4, i32 0, i32 0
  %6 = getelementptr inbounds nuw %"struct.std::_Vector_base<unsigned int, std::allocator<unsigned int>>::_Vector_impl_data", ptr %5, i32 0, i32 1
  call void @_ZN9__gnu_cxx17__normal_iteratorIPKjSt6vectorIjSaIjEEEC2ERKS2_(ptr noundef nonnull align 8 dereferenceable(8) %2, ptr noundef nonnull align 8 dereferenceable(8) %6) #3
  %7 = getelementptr inbounds nuw %"class.__gnu_cxx::__normal_iterator.87", ptr %2, i32 0, i32 0
  %8 = load ptr, ptr %7, align 8
  ret ptr %8
}

; Function Attrs: mustprogress nounwind uwtable
define linkonce_odr hidden ptr @_ZNKSt6vectorIjSaIjEE5beginEv(ptr noundef nonnull align 8 dereferenceable(24) %0) #7 comdat align 2 {
  %2 = alloca %"class.__gnu_cxx::__normal_iterator.87", align 8
  %3 = alloca ptr, align 8
  store ptr %0, ptr %3, align 8, !tbaa !10
  %4 = load ptr, ptr %3, align 8
  %5 = getelementptr inbounds nuw %"struct.std::_Vector_base", ptr %4, i32 0, i32 0
  %6 = getelementptr inbounds nuw %"struct.std::_Vector_base<unsigned int, std::allocator<unsigned int>>::_Vector_impl_data", ptr %5, i32 0, i32 0
  call void @_ZN9__gnu_cxx17__normal_iteratorIPKjSt6vectorIjSaIjEEEC2ERKS2_(ptr noundef nonnull align 8 dereferenceable(8) %2, ptr noundef nonnull align 8 dereferenceable(8) %6) #3
  %7 = getelementptr inbounds nuw %"class.__gnu_cxx::__normal_iterator.87", ptr %2, i32 0, i32 0
  %8 = load ptr, ptr %7, align 8
  ret ptr %8
}

; Function Attrs: mustprogress nounwind uwtable
define linkonce_odr hidden noundef zeroext i1 @_ZNKSt6vectorIjSaIjEE5emptyEv(ptr noundef nonnull align 8 dereferenceable(24) %0) #7 comdat align 2 {
  %2 = alloca ptr, align 8
  %3 = alloca %"class.__gnu_cxx::__normal_iterator.87", align 8
  %4 = alloca %"class.__gnu_cxx::__normal_iterator.87", align 8
  store ptr %0, ptr %2, align 8, !tbaa !10
  %5 = load ptr, ptr %2, align 8
  call void @llvm.lifetime.start.p0(i64 8, ptr %3) #3
  %6 = call ptr @_ZNKSt6vectorIjSaIjEE5beginEv(ptr noundef nonnull align 8 dereferenceable(24) %5) #3
  %7 = getelementptr inbounds nuw %"class.__gnu_cxx::__normal_iterator.87", ptr %3, i32 0, i32 0
  store ptr %6, ptr %7, align 8
  call void @llvm.lifetime.start.p0(i64 8, ptr %4) #3
  %8 = call ptr @_ZNKSt6vectorIjSaIjEE3endEv(ptr noundef nonnull align 8 dereferenceable(24) %5) #3
  %9 = getelementptr inbounds nuw %"class.__gnu_cxx::__normal_iterator.87", ptr %4, i32 0, i32 0
  store ptr %8, ptr %9, align 8
  %10 = call noundef zeroext i1 @_ZN9__gnu_cxxeqIPKjSt6vectorIjSaIjEEEEbRKNS_17__normal_iteratorIT_T0_EESB_(ptr noundef nonnull align 8 dereferenceable(8) %3, ptr noundef nonnull align 8 dereferenceable(8) %4) #3
  call void @llvm.lifetime.end.p0(i64 8, ptr %4) #3
  call void @llvm.lifetime.end.p0(i64 8, ptr %3) #3
  ret i1 %10
}

; Function Attrs: inlinehint mustprogress nounwind uwtable
define linkonce_odr hidden void @_ZNK4cvc58internal12NodeTemplateILb0EE21assertTNodeNotExpiredEv(ptr noundef nonnull align 8 dereferenceable(8) %0) #8 comdat align 2 {
  %2 = alloca ptr, align 8
  store ptr %0, ptr %2, align 8, !tbaa !48
  ret void
}

; Function Attrs: inlinehint mustprogress uwtable
define linkonce_odr hidden noundef nonnull align 8 dereferenceable(32) ptr @_ZNK4cvc58internal12NodeTemplateILb0EE8getConstINS0_8SequenceEEERKT_v(ptr noundef nonnull align 8 dereferenceable(8) %0) #5 comdat align 2 {
  %2 = alloca ptr, align 8
  store ptr %0, ptr %2, align 8, !tbaa !48
  %3 = load ptr, ptr %2, align 8
  call void @_ZNK4cvc58internal12NodeTemplateILb0EE21assertTNodeNotExpiredEv(ptr noundef nonnull align 8 dereferenceable(8) %3)
  %4 = getelementptr inbounds nuw %"class.cvc5::internal::NodeTemplate.85", ptr %3, i32 0, i32 0
  %5 = load ptr, ptr %4, align 8, !tbaa !50
  %6 = call noundef nonnull align 8 dereferenceable(32) ptr @_ZNK4cvc58internal4expr9NodeValue8getConstINS0_8SequenceEEERKT_v(ptr noundef nonnull align 8 dereferenceable(24) %5)
  ret ptr %6
}

; Function Attrs: mustprogress nounwind uwtable
define linkonce_odr hidden noundef zeroext i1 @_ZNK4cvc58internal6String5emptyEv(ptr noundef nonnull align 8 dereferenceable(24) %0) #7 comdat align 2 {
  %2 = alloca ptr, align 8
  store ptr %0, ptr %2, align 8, !tbaa !12
  %3 = load ptr, ptr %2, align 8
  %4 = getelementptr inbounds nuw %"class.cvc5::internal::String", ptr %3, i32 0, i32 0
  %5 = call noundef zeroext i1 @_ZNKSt6vectorIjSaIjEE5emptyEv(ptr noundef nonnull align 8 dereferenceable(24) %4) #3
  ret i1 %5
}

; Function Attrs: inlinehint mustprogress uwtable
define linkonce_odr hidden noundef nonnull align 8 dereferenceable(24) ptr @_ZNK4cvc58internal12NodeTemplateILb0EE8getConstINS0_6StringEEERKT_v(ptr noundef nonnull align 8 dereferenceable(8) %0) #5 comdat align 2 {
  %2 = alloca ptr, align 8
  store ptr %0, ptr %2, align 8, !tbaa !48
  %3 = load ptr, ptr %2, align 8
  call void @_ZNK4cvc58internal12NodeTemplateILb0EE21assertTNodeNotExpiredEv(ptr noundef nonnull align 8 dereferenceable(8) %3)
  %4 = getelementptr inbounds nuw %"class.cvc5::internal::NodeTemplate.85", ptr %3, i32 0, i32 0
  %5 = load ptr, ptr %4, align 8, !tbaa !50
  %6 = call noundef nonnull align 8 dereferenceable(24) ptr @_ZNK4cvc58internal4expr9NodeValue8getConstINS0_6StringEEERKT_v(ptr noundef nonnull align 8 dereferenceable(24) %5)
  ret ptr %6
}

; Function Attrs: inlinehint mustprogress nounwind uwtable
define linkonce_odr hidden noundef i32 @_ZNK4cvc58internal12NodeTemplateILb0EE7getKindEv(ptr noundef nonnull align 8 dereferenceable(8) %0) #8 comdat align 2 {
  %2 = alloca ptr, align 8
  store ptr %0, ptr %2, align 8, !tbaa !48
  %3 = load ptr, ptr %2, align 8
  call void @_ZNK4cvc58internal12NodeTemplateILb0EE21assertTNodeNotExpiredEv(ptr noundef nonnull align 8 dereferenceable(8) %3)
  %4 = getelementptr inbounds nuw %"class.cvc5::internal::NodeTemplate.85", ptr %3, i32 0, i32 0
  %5 = load ptr, ptr %4, align 8, !tbaa !50
  %6 = getelementptr inbounds nuw %"class.cvc5::internal::expr::NodeValue", ptr %5, i32 0, i32 1
  %7 = load i64, ptr %6, align 8
  %8 = and i64 %7, 1023
  %9 = trunc i64 %8 to i32
  ret i32 %9
}

; Function Attrs: mustprogress uwtable
define hidden noundef zeroext i1 @_ZN4cvc58internal6theory7strings4Word10hasOverlapENS0_12NodeTemplateILb0EEES5_b(ptr noundef %0, ptr noundef %1, i1 noundef zeroext %2) #4 align 2 personality ptr @__gxx_personality_v0 {
  %4 = alloca i1, align 1
  %5 = alloca ptr, align 8
  %6 = alloca ptr, align 8
  %7 = alloca i8, align 1
  %8 = alloca i32, align 4
  %9 = alloca ptr, align 8
  %10 = alloca ptr, align 8
  %11 = alloca i32, align 4
  %12 = alloca ptr, align 8
  %13 = alloca ptr, align 8
  %14 = alloca %"class.cvc5::internal::FatalStream", align 1
  %15 = alloca ptr, align 8
  %16 = alloca i32, align 4
  store ptr %0, ptr %5, align 8, !tbaa !48
  store ptr %1, ptr %6, align 8, !tbaa !48
  %17 = zext i1 %2 to i8
  store i8 %17, ptr %7, align 1, !tbaa !60
  call void @llvm.lifetime.start.p0(i64 4, ptr %8) #3
  %18 = call noundef i32 @_ZNK4cvc58internal12NodeTemplateILb0EE7getKindEv(ptr noundef nonnull align 8 dereferenceable(8) %0)
  store i32 %18, ptr %8, align 4, !tbaa !35
  %19 = load i32, ptr %8, align 4, !tbaa !35
  %20 = icmp eq i32 %19, 341
  br i1 %20, label %21, label %55

21:                                               ; preds = %3
  call void @llvm.lifetime.start.p0(i64 8, ptr %9) #3
  %22 = call noundef nonnull align 8 dereferenceable(24) ptr @_ZNK4cvc58internal12NodeTemplateILb0EE8getConstINS0_6StringEEERKT_v(ptr noundef nonnull align 8 dereferenceable(8) %0)
  store ptr %22, ptr %9, align 8, !tbaa !12
  call void @llvm.lifetime.start.p0(i64 8, ptr %10) #3
  %23 = call noundef nonnull align 8 dereferenceable(24) ptr @_ZNK4cvc58internal12NodeTemplateILb0EE8getConstINS0_6StringEEERKT_v(ptr noundef nonnull align 8 dereferenceable(8) %1)
  store ptr %23, ptr %10, align 8, !tbaa !12
  %24 = load ptr, ptr %9, align 8, !tbaa !12
  %25 = call noundef zeroext i1 @_ZNK4cvc58internal6String5emptyEv(ptr noundef nonnull align 8 dereferenceable(24) %24)
  br i1 %25, label %26, label %27

26:                                               ; preds = %21
  store i1 false, ptr %4, align 1
  store i32 1, ptr %11, align 4
  br label %54

27:                                               ; preds = %21
  %28 = load i8, ptr %7, align 1, !tbaa !60, !range !62, !noundef !63
  %29 = trunc i8 %28 to i1
  br i1 %29, label %30, label %42

30:                                               ; preds = %27
  %31 = load ptr, ptr %9, align 8, !tbaa !12
  %32 = load ptr, ptr %10, align 8, !tbaa !12
  %33 = call noundef i64 @_ZNK4cvc58internal6String4findERKS1_m(ptr noundef nonnull align 8 dereferenceable(24) %31, ptr noundef nonnull align 8 dereferenceable(24) %32, i64 noundef 0)
  %34 = icmp ne i64 %33, -1
  br i1 %34, label %40, label %35

35:                                               ; preds = %30
  %36 = load ptr, ptr %9, align 8, !tbaa !12
  %37 = load ptr, ptr %10, align 8, !tbaa !12
  %38 = call noundef i64 @_ZNK4cvc58internal6String8roverlapERKS1_(ptr noundef nonnull align 8 dereferenceable(24) %36, ptr noundef nonnull align 8 dereferenceable(24) %37)
  %39 = icmp ne i64 %38, 0
  br label %40

40:                                               ; preds = %35, %30
  %41 = phi i1 [ true, %30 ], [ %39, %35 ]
  store i1 %41, ptr %4, align 1
  store i32 1, ptr %11, align 4
  br label %54

42:                                               ; preds = %27
  %43 = load ptr, ptr %9, align 8, !tbaa !12
  %44 = load ptr, ptr %10, align 8, !tbaa !12
  %45 = call noundef i64 @_ZNK4cvc58internal6String4findERKS1_m(ptr noundef nonnull align 8 dereferenceable(24) %43, ptr noundef nonnull align 8 dereferenceable(24) %44, i64 noundef 0)
  %46 = icmp ne i64 %45, -1
  br i1 %46, label %52, label %47

47:                                               ; preds = %42
  %48 = load ptr, ptr %9, align 8, !tbaa !12
  %49 = load ptr, ptr %10, align 8, !tbaa !12
  %50 = call noundef i64 @_ZNK4cvc58internal6String7overlapERKS1_(ptr noundef nonnull align 8 dereferenceable(24) %48, ptr noundef nonnull align 8 dereferenceable(24) %49)
  %51 = icmp ne i64 %50, 0
  br label %52

52:                                               ; preds = %47, %42
  %53 = phi i1 [ true, %42 ], [ %51, %47 ]
  store i1 %53, ptr %4, align 1
  store i32 1, ptr %11, align 4
  br label %54

54:                                               ; preds = %52, %40, %26
  call void @llvm.lifetime.end.p0(i64 8, ptr %10) #3
  call void @llvm.lifetime.end.p0(i64 8, ptr %9) #3
  br label %103

55:                                               ; preds = %3
  %56 = load i32, ptr %8, align 4, !tbaa !35
  %57 = icmp eq i32 %56, 343
  br i1 %57, label %58, label %92

58:                                               ; preds = %55
  call void @llvm.lifetime.start.p0(i64 8, ptr %12) #3
  %59 = call noundef nonnull align 8 dereferenceable(32) ptr @_ZNK4cvc58internal12NodeTemplateILb0EE8getConstINS0_8SequenceEEERKT_v(ptr noundef nonnull align 8 dereferenceable(8) %0)
  store ptr %59, ptr %12, align 8, !tbaa !37
  call void @llvm.lifetime.start.p0(i64 8, ptr %13) #3
  %60 = call noundef nonnull align 8 dereferenceable(32) ptr @_ZNK4cvc58internal12NodeTemplateILb0EE8getConstINS0_8SequenceEEERKT_v(ptr noundef nonnull align 8 dereferenceable(8) %1)
  store ptr %60, ptr %13, align 8, !tbaa !37
  %61 = load ptr, ptr %12, align 8, !tbaa !37
  %62 = call noundef zeroext i1 @_ZNK4cvc58internal8Sequence5emptyEv(ptr noundef nonnull align 8 dereferenceable(32) %61)
  br i1 %62, label %63, label %64

63:                                               ; preds = %58
  store i1 false, ptr %4, align 1
  store i32 1, ptr %11, align 4
  br label %91

64:                                               ; preds = %58
  %65 = load i8, ptr %7, align 1, !tbaa !60, !range !62, !noundef !63
  %66 = trunc i8 %65 to i1
  br i1 %66, label %67, label %79

67:                                               ; preds = %64
  %68 = load ptr, ptr %12, align 8, !tbaa !37
  %69 = load ptr, ptr %13, align 8, !tbaa !37
  %70 = call noundef i64 @_ZNK4cvc58internal8Sequence4findERKS1_m(ptr noundef nonnull align 8 dereferenceable(32) %68, ptr noundef nonnull align 8 dereferenceable(32) %69, i64 noundef 0)
  %71 = icmp ne i64 %70, -1
  br i1 %71, label %77, label %72

72:                                               ; preds = %67
  %73 = load ptr, ptr %12, align 8, !tbaa !37
  %74 = load ptr, ptr %13, align 8, !tbaa !37
  %75 = call noundef i64 @_ZNK4cvc58internal8Sequence8roverlapERKS1_(ptr noundef nonnull align 8 dereferenceable(32) %73, ptr noundef nonnull align 8 dereferenceable(32) %74)
  %76 = icmp ne i64 %75, 0
  br label %77

77:                                               ; preds = %72, %67
  %78 = phi i1 [ true, %67 ], [ %76, %72 ]
  store i1 %78, ptr %4, align 1
  store i32 1, ptr %11, align 4
  br label %91

79:                                               ; preds = %64
  %80 = load ptr, ptr %12, align 8, !tbaa !37
  %81 = load ptr, ptr %13, align 8, !tbaa !37
  %82 = call noundef i64 @_ZNK4cvc58internal8Sequence4findERKS1_m(ptr noundef nonnull align 8 dereferenceable(32) %80, ptr noundef nonnull align 8 dereferenceable(32) %81, i64 noundef 0)
  %83 = icmp ne i64 %82, -1
  br i1 %83, label %89, label %84

84:                                               ; preds = %79
  %85 = load ptr, ptr %12, align 8, !tbaa !37
  %86 = load ptr, ptr %13, align 8, !tbaa !37
  %87 = call noundef i64 @_ZNK4cvc58internal8Sequence7overlapERKS1_(ptr noundef nonnull align 8 dereferenceable(32) %85, ptr noundef nonnull align 8 dereferenceable(32) %86)
  %88 = icmp ne i64 %87, 0
  br label %89

89:                                               ; preds = %84, %79
  %90 = phi i1 [ true, %79 ], [ %88, %84 ]
  store i1 %90, ptr %4, align 1
  store i32 1, ptr %11, align 4
  br label %91

91:                                               ; preds = %89, %77, %63
  call void @llvm.lifetime.end.p0(i64 8, ptr %13) #3
  call void @llvm.lifetime.end.p0(i64 8, ptr %12) #3
  br label %103

92:                                               ; preds = %55
  br label %93

93:                                               ; preds = %92
  call void @llvm.lifetime.start.p0(i64 1, ptr %14) #3
  call void @_ZN4cvc58internal11FatalStreamC1EPKcS3_i(ptr noundef nonnull align 1 dereferenceable(1) %14, ptr noundef @__PRETTY_FUNCTION__._ZN4cvc58internal6theory7strings4Word10hasOverlapENS0_12NodeTemplateILb0EEES5_b, ptr noundef @.str, i32 noundef 413)
  %94 = invoke noundef nonnull align 8 dereferenceable(8) ptr @_ZN4cvc58internal11FatalStream6streamEv(ptr noundef nonnull align 1 dereferenceable(1) %14)
          to label %95 unwind label %98

95:                                               ; preds = %93
  %96 = invoke noundef nonnull align 8 dereferenceable(8) ptr @_ZStlsISt11char_traitsIcEERSt13basic_ostreamIcT_ES5_PKc(ptr noundef nonnull align 8 dereferenceable(8) %94, ptr noundef @.str.1)
          to label %97 unwind label %98

97:                                               ; preds = %95
  call void @_ZN4cvc58internal11FatalStreamD1Ev(ptr noundef nonnull align 1 dereferenceable(1) %14) #18
  unreachable

98:                                               ; preds = %95, %93
  %99 = landingpad { ptr, i32 }
          cleanup
  %100 = extractvalue { ptr, i32 } %99, 0
  store ptr %100, ptr %15, align 8
  %101 = extractvalue { ptr, i32 } %99, 1
  store i32 %101, ptr %16, align 4
  call void @_ZN4cvc58internal11FatalStreamD1Ev(ptr noundef nonnull align 1 dereferenceable(1) %14) #18
  unreachable

102:                                              ; No predecessors!
  call void @llvm.lifetime.end.p0(i64 1, ptr %14) #3
  call void @llvm.lifetime.end.p0(i64 4, ptr %8) #3
  br label %105

103:                                              ; preds = %91, %54
  call void @llvm.lifetime.end.p0(i64 4, ptr %8) #3
  %104 = load i1, ptr %4, align 1
  ret i1 %104

105:                                              ; preds = %102
  %106 = load ptr, ptr %15, align 8
  %107 = load i32, ptr %16, align 4
  %108 = insertvalue { ptr, i32 } poison, ptr %106, 0
  %109 = insertvalue { ptr, i32 } %108, i32 %107, 1
  resume { ptr, i32 } %109
}