; Function Attrs: mustprogress uwtable
define hidden noundef zeroext i1 @_ZN4cvc58internal6theory7strings4Word10hasOverlapENS0_12NodeTemplateILb0EEES5_b(ptr noundef readonly captures(none) %0, ptr noundef readonly captures(none) %1, i1 noundef zeroext %2) local_unnamed_addr #3 align 2 personality ptr @__gxx_personality_v0 {
  %4 = alloca %"class.cvc5::internal::FatalStream", align 1
  %5 = load ptr, ptr %0, align 8, !tbaa !28
  %6 = getelementptr inbounds nuw i8, ptr %5, i64 8
  %7 = load i64, ptr %6, align 8
  %8 = trunc i64 %7 to i32
  %9 = and i32 %8, 1023
  switch i32 %9, label %43 [
    i32 341, label %10
    i32 343, label %28
  ]

10:                                               ; preds = %3
  %11 = tail call noundef nonnull align 8 dereferenceable(24) ptr @_ZNK4cvc58internal4expr9NodeValue8getConstINS0_6StringEEERKT_v(ptr noundef nonnull align 8 dereferenceable(24) %5)
  %12 = load ptr, ptr %1, align 8, !tbaa !28
  %13 = tail call noundef nonnull align 8 dereferenceable(24) ptr @_ZNK4cvc58internal4expr9NodeValue8getConstINS0_6StringEEERKT_v(ptr noundef nonnull align 8 dereferenceable(24) %12)
  %14 = load ptr, ptr %11, align 8, !tbaa !27
  %15 = getelementptr inbounds nuw i8, ptr %11, i64 8
  %16 = load ptr, ptr %15, align 8, !tbaa !27
  %17 = icmp eq ptr %14, %16
  br i1 %17, label %50, label %18

18:                                               ; preds = %10
  %19 = tail call noundef i64 @_ZNK4cvc58internal6String4findERKS1_m(ptr noundef nonnull align 8 dereferenceable(24) %11, ptr noundef nonnull align 8 dereferenceable(24) %13, i64 noundef 0)
  %.not25 = icmp eq i64 %19, -1
  br i1 %2, label %20, label %24

20:                                               ; preds = %18
  br i1 %.not25, label %21, label %50

21:                                               ; preds = %20
  %22 = tail call noundef i64 @_ZNK4cvc58internal6String8roverlapERKS1_(ptr noundef nonnull align 8 dereferenceable(24) %11, ptr noundef nonnull align 8 dereferenceable(24) %13)
  %23 = icmp ne i64 %22, 0
  br label %50

24:                                               ; preds = %18
  br i1 %.not25, label %25, label %50

25:                                               ; preds = %24
  %26 = tail call noundef i64 @_ZNK4cvc58internal6String7overlapERKS1_(ptr noundef nonnull align 8 dereferenceable(24) %11, ptr noundef nonnull align 8 dereferenceable(24) %13)
  %27 = icmp ne i64 %26, 0
  br label %50

28:                                               ; preds = %3
  %29 = tail call noundef nonnull align 8 dereferenceable(32) ptr @_ZNK4cvc58internal4expr9NodeValue8getConstINS0_8SequenceEEERKT_v(ptr noundef nonnull align 8 dereferenceable(24) %5)
  %30 = load ptr, ptr %1, align 8, !tbaa !28
  %31 = tail call noundef nonnull align 8 dereferenceable(32) ptr @_ZNK4cvc58internal4expr9NodeValue8getConstINS0_8SequenceEEERKT_v(ptr noundef nonnull align 8 dereferenceable(24) %30)
  %32 = tail call noundef zeroext i1 @_ZNK4cvc58internal8Sequence5emptyEv(ptr noundef nonnull align 8 dereferenceable(32) %29)
  br i1 %32, label %50, label %33

33:                                               ; preds = %28
  %34 = tail call noundef i64 @_ZNK4cvc58internal8Sequence4findERKS1_m(ptr noundef nonnull align 8 dereferenceable(32) %29, ptr noundef nonnull align 8 dereferenceable(32) %31, i64 noundef 0)
  %.not23 = icmp eq i64 %34, -1
  br i1 %2, label %35, label %39

35:                                               ; preds = %33
  br i1 %.not23, label %36, label %50

36:                                               ; preds = %35
  %37 = tail call noundef i64 @_ZNK4cvc58internal8Sequence8roverlapERKS1_(ptr noundef nonnull align 8 dereferenceable(32) %29, ptr noundef nonnull align 8 dereferenceable(32) %31)
  %38 = icmp ne i64 %37, 0
  br label %50

39:                                               ; preds = %33
  br i1 %.not23, label %40, label %50

40:                                               ; preds = %39
  %41 = tail call noundef i64 @_ZNK4cvc58internal8Sequence7overlapERKS1_(ptr noundef nonnull align 8 dereferenceable(32) %29, ptr noundef nonnull align 8 dereferenceable(32) %31)
  %42 = icmp ne i64 %41, 0
  br label %50

43:                                               ; preds = %3
  call void @llvm.lifetime.start.p0(i64 1, ptr nonnull %4) #21
  call void @_ZN4cvc58internal11FatalStreamC1EPKcS3_i(ptr noundef nonnull align 1 dereferenceable(1) %4, ptr noundef nonnull @__PRETTY_FUNCTION__._ZN4cvc58internal6theory7strings4Word10hasOverlapENS0_12NodeTemplateILb0EEES5_b, ptr noundef nonnull @.str, i32 noundef 413)
  %44 = invoke noundef nonnull align 8 dereferenceable(8) ptr @_ZN4cvc58internal11FatalStream6streamEv(ptr noundef nonnull align 1 dereferenceable(1) %4)
          to label %45 unwind label %48

45:                                               ; preds = %43
  %46 = invoke noundef nonnull align 8 dereferenceable(8) ptr @_ZStlsISt11char_traitsIcEERSt13basic_ostreamIcT_ES5_PKc(ptr noundef nonnull align 8 dereferenceable(8) %44, ptr noundef nonnull @.str.1)
          to label %47 unwind label %48

47:                                               ; preds = %45
  call void @_ZN4cvc58internal11FatalStreamD1Ev(ptr noundef nonnull align 1 dereferenceable(1) %4) #23
  unreachable

48:                                               ; preds = %45, %43
  %49 = landingpad { ptr, i32 }
          cleanup
  call void @_ZN4cvc58internal11FatalStreamD1Ev(ptr noundef nonnull align 1 dereferenceable(1) %4) #23
  unreachable

50:                                               ; preds = %28, %36, %35, %40, %39, %10, %21, %20, %25, %24
  %.1 = phi i1 [ false, %10 ], [ true, %20 ], [ %23, %21 ], [ true, %24 ], [ %27, %25 ], [ false, %28 ], [ true, %35 ], [ %38, %36 ], [ true, %39 ], [ %42, %40 ]
  ret i1 %.1
}